; Function Attrs: mustprogress nofree nounwind willreturn memory(argmem: read) uwtable
define range(i32 -2147483647, -2147483648) i32 @pmix_mca_base_component_compatible(ptr noundef readonly captures(none) %0, ptr noundef readonly captures(none) %1) local_unnamed_addr #1 {
  %3 = getelementptr inbounds nuw i8, ptr %0, i64 40
  %4 = getelementptr inbounds nuw i8, ptr %1, i64 40
  %5 = tail call i32 @strncmp(ptr noundef nonnull dereferenceable(1) %3, ptr noundef nonnull dereferenceable(1) %4, i64 noundef 31) #6
  %.not = icmp eq i32 %5, 0
  br i1 %.not, label %8, label %6

6:                                                ; preds = %2
  %7 = sub nsw i32 0, %5
  br label %30

8:                                                ; preds = %2
  %9 = getelementptr inbounds nuw i8, ptr %0, i64 84
  %10 = getelementptr inbounds nuw i8, ptr %1, i64 84
  %11 = tail call i32 @strncmp(ptr noundef nonnull dereferenceable(1) %9, ptr noundef nonnull dereferenceable(1) %10, i64 noundef 63) #6
  %.not22 = icmp eq i32 %11, 0
  br i1 %.not22, label %14, label %12

12:                                               ; preds = %8
  %13 = sub nsw i32 0, %11
  br label %30

14:                                               ; preds = %8
  %15 = getelementptr inbounds nuw i8, ptr %0, i64 148
  %16 = load i32, ptr %15, align 4, !tbaa !17
  %17 = getelementptr inbounds nuw i8, ptr %1, i64 148
  %18 = load i32, ptr %17, align 4, !tbaa !17
  %19 = icmp sgt i32 %16, %18
  br i1 %19, label %30, label %20

20:                                               ; preds = %14
  %21 = icmp slt i32 %16, %18
  br i1 %21, label %30, label %22

22:                                               ; preds = %20
  %23 = getelementptr inbounds nuw i8, ptr %0, i64 152
  %24 = load i32, ptr %23, align 8, !tbaa !19
  %25 = getelementptr inbounds nuw i8, ptr %1, i64 152
  %26 = load i32, ptr %25, align 8, !tbaa !19
  %27 = icmp sgt i32 %24, %26
  br i1 %27, label %30, label %28

28:                                               ; preds = %22
  %29 = icmp slt i32 %24, %26
  %. = zext i1 %29 to i32
  br label %30

30:                                               ; preds = %28, %22, %20, %14, %12, %6
  %.0 = phi i32 [ %7, %6 ], [ %13, %12 ], [ -1, %14 ], [ 1, %20 ], [ -1, %22 ], [ %., %28 ]
  ret i32 %.0
}